target datalayout = "e-m:e-p270:32:32-p271:32:32-p272:64:64-i64:64-i128:128-f80:128-n8:16:32:64-S128"
target triple = "x86_64-pc-linux-gnu"

%struct._packet_info = type { ptr, ptr, i32, i32, %struct.nstime_t, %struct.nstime_t, %struct.nstime_t, i32, ptr, ptr, ptr, ptr, %struct._address, %struct._address, %struct._address, %struct._address, %struct._address, %struct._address, i32, ptr, i32, %struct.anon, i32, i32, i32, i32, ptr, i32, ptr, ptr, i16, i16, i32, i32, i16, i32, i32, ptr, ptr, ptr, i8, i8, i16, i16, i16, i32, i16, i16, ptr, ptr, ptr, ptr, ptr, i32 }
%struct.nstime_t = type { i64, i32 }
%struct._address = type { i32, i32, ptr, ptr }
%struct.anon = type { i8, [3 x i8] }

@hf_swils_zone_activezonenm = internal global i32 0, align 4
@hf_swils_zone_status = internal global i32 0, align 4
@hf_swils_zone_reason = internal global i32 0, align 4
@hf_swils_zone_active_zoneset_length = internal global i32 0, align 4
@hf_swils_zone_num_zoning_objects = internal global i32 0, align 4
@hf_swils_zone_full_zone_set_length = internal global i32 0, align 4
@hf_swils_zone_vendor_unique = internal global i32 0, align 4
@ett_fcswils_zoneobjlist = internal global i32 0, align 4
@ett_fcswils_zoneobj = internal global i32 0, align 4
@.str.418 = private unnamed_addr constant [16 x i8] c"Active Zone Set\00", align 1
@.str.419 = private unnamed_addr constant [15 x i8] c"Zone Object %d\00", align 1
@.str.420 = private unnamed_addr constant [14 x i8] c"Full Zone Set\00", align 1

; Function Attrs: nounwind uwtable
define internal ptr @zonenm_to_str(ptr noundef %0, ptr noundef %1, i32 noundef %2) #0 {
  %4 = alloca ptr, align 8
  %5 = alloca ptr, align 8
  %6 = alloca i32, align 4
  %7 = alloca i32, align 4
  store ptr %0, ptr %4, align 8
  store ptr %1, ptr %5, align 8
  store i32 %2, ptr %6, align 4
  %8 = load ptr, ptr %5, align 8
  %9 = load i32, ptr %6, align 4
  %10 = call zeroext i8 @tvb_get_guint8(ptr noundef %8, i32 noundef %9)
  %11 = zext i8 %10 to i32
  store i32 %11, ptr %7, align 4
  %12 = load ptr, ptr %4, align 8
  %13 = load ptr, ptr %5, align 8
  %14 = load i32, ptr %6, align 4
  %15 = add i32 %14, 4
  %16 = load i32, ptr %7, align 4
  %17 = call ptr @tvb_get_string_enc(ptr noundef %12, ptr noundef %13, i32 noundef %15, i32 noundef %16, i32 noundef 0)
  ret ptr %17
}

; Function Attrs: nounwind uwtable
define internal void @dissect_swils_mergereq(ptr noundef %0, ptr noundef %1, ptr noundef %2, i8 noundef zeroext %3) #0 {
  %5 = alloca ptr, align 8
  %6 = alloca ptr, align 8
  %7 = alloca ptr, align 8
  %8 = alloca i8, align 1
  %9 = alloca i32, align 4
  %10 = alloca ptr, align 8
  %11 = alloca ptr, align 8
  %12 = alloca i32, align 4
  %13 = alloca i32, align 4
  %14 = alloca i32, align 4
  %15 = alloca i32, align 4
  %16 = alloca i32, align 4
  %17 = alloca ptr, align 8
  store ptr %0, ptr %5, align 8
  store ptr %1, ptr %6, align 8
  store ptr %2, ptr %7, align 8
  store i8 %3, ptr %8, align 1
  store i32 0, ptr %9, align 4
  %18 = load i8, ptr %8, align 1
  %19 = icmp ne i8 %18, 0
  br i1 %19, label %20, label %176

20:                                               ; preds = %4
  %21 = load ptr, ptr %5, align 8
  %22 = load i32, ptr %9, align 4
  %23 = add i32 %22, 2
  %24 = call zeroext i16 @tvb_get_ntohs(ptr noundef %21, i32 noundef %23)
  %25 = zext i16 %24 to i32
  store i32 %25, ptr %14, align 4
  %26 = load ptr, ptr %7, align 8
  %27 = load i32, ptr @hf_swils_zone_active_zoneset_length, align 4
  %28 = load ptr, ptr %5, align 8
  %29 = load i32, ptr %9, align 4
  %30 = add i32 %29, 2
  %31 = call ptr @proto_tree_add_item(ptr noundef %26, i32 noundef %27, ptr noundef %28, i32 noundef %30, i32 noundef 2, i32 noundef 0)
  %32 = load i32, ptr %14, align 4
  %33 = icmp ne i32 %32, 0
  br i1 %33, label %34, label %115

34:                                               ; preds = %20
  %35 = load ptr, ptr %6, align 8
  %36 = getelementptr inbounds %struct._packet_info, ptr %35, i32 0, i32 50
  %37 = load ptr, ptr %36, align 8
  %38 = load ptr, ptr %5, align 8
  %39 = load i32, ptr %9, align 4
  %40 = add i32 %39, 4
  %41 = call ptr @zonenm_to_str(ptr noundef %37, ptr noundef %38, i32 noundef %40)
  store ptr %41, ptr %17, align 8
  %42 = load ptr, ptr %7, align 8
  %43 = load i32, ptr @hf_swils_zone_activezonenm, align 4
  %44 = load ptr, ptr %5, align 8
  %45 = load i32, ptr %9, align 4
  %46 = add i32 %45, 4
  %47 = load ptr, ptr %5, align 8
  %48 = load i32, ptr %9, align 4
  %49 = add i32 %48, 4
  %50 = call zeroext i8 @tvb_get_guint8(ptr noundef %47, i32 noundef %49)
  %51 = zext i8 %50 to i32
  %52 = add i32 %51, 4
  %53 = load ptr, ptr %17, align 8
  %54 = call ptr @proto_tree_add_string(ptr noundef %42, i32 noundef %43, ptr noundef %44, i32 noundef %46, i32 noundef %52, ptr noundef %53)
  %55 = load i32, ptr %14, align 4
  %56 = load ptr, ptr %5, align 8
  %57 = load i32, ptr %9, align 4
  %58 = add i32 %57, 4
  %59 = call zeroext i8 @tvb_get_guint8(ptr noundef %56, i32 noundef %58)
  %60 = zext i8 %59 to i32
  %61 = add i32 %60, 4
  %62 = sub i32 %55, %61
  store i32 %62, ptr %15, align 4
  %63 = load i32, ptr %9, align 4
  %64 = load ptr, ptr %5, align 8
  %65 = load i32, ptr %9, align 4
  %66 = add i32 %65, 4
  %67 = call zeroext i8 @tvb_get_guint8(ptr noundef %64, i32 noundef %66)
  %68 = zext i8 %67 to i32
  %69 = add i32 %68, 4
  %70 = add i32 4, %69
  %71 = add i32 %63, %70
  store i32 %71, ptr %9, align 4
  %72 = load ptr, ptr %5, align 8
  %73 = load i32, ptr %9, align 4
  %74 = call i32 @tvb_get_ntohl(ptr noundef %72, i32 noundef %73)
  store i32 %74, ptr %12, align 4
  %75 = load ptr, ptr %7, align 8
  %76 = load ptr, ptr %5, align 8
  %77 = load i32, ptr %9, align 4
  %78 = load i32, ptr %15, align 4
  %79 = load i32, ptr @ett_fcswils_zoneobjlist, align 4
  %80 = call ptr @proto_tree_add_subtree(ptr noundef %75, ptr noundef %76, i32 noundef %77, i32 noundef %78, i32 noundef %79, ptr noundef null, ptr noundef @.str.418)
  store ptr %80, ptr %10, align 8
  %81 = load ptr, ptr %10, align 8
  %82 = load i32, ptr @hf_swils_zone_num_zoning_objects, align 4
  %83 = load ptr, ptr %5, align 8
  %84 = load i32, ptr %9, align 4
  %85 = call ptr @proto_tree_add_item(ptr noundef %81, i32 noundef %82, ptr noundef %83, i32 noundef %84, i32 noundef 4, i32 noundef 0)
  %86 = load i32, ptr %9, align 4
  %87 = add i32 %86, 4
  store i32 %87, ptr %9, align 4
  store i32 0, ptr %13, align 4
  br label %88

88:                                               ; preds = %111, %34
  %89 = load i32, ptr %13, align 4
  %90 = load i32, ptr %12, align 4
  %91 = icmp slt i32 %89, %90
  br i1 %91, label %92, label %114

92:                                               ; preds = %88
  %93 = load ptr, ptr %5, align 8
  %94 = load i32, ptr %9, align 4
  %95 = call i32 @get_zoneobj_len(ptr noundef %93, i32 noundef %94)
  store i32 %95, ptr %16, align 4
  %96 = load ptr, ptr %10, align 8
  %97 = load ptr, ptr %5, align 8
  %98 = load i32, ptr %9, align 4
  %99 = add i32 %98, 4
  %100 = load i32, ptr %16, align 4
  %101 = load i32, ptr @ett_fcswils_zoneobj, align 4
  %102 = load i32, ptr %13, align 4
  %103 = call ptr (ptr, ptr, i32, i32, i32, ptr, ptr, ...) @proto_tree_add_subtree_format(ptr noundef %96, ptr noundef %97, i32 noundef %99, i32 noundef %100, i32 noundef %101, ptr noundef null, ptr noundef @.str.419, i32 noundef %102)
  store ptr %103, ptr %11, align 8
  %104 = load ptr, ptr %5, align 8
  %105 = load ptr, ptr %6, align 8
  %106 = load ptr, ptr %11, align 8
  %107 = load i32, ptr %9, align 4
  call void @dissect_swils_zone_obj(ptr noundef %104, ptr noundef %105, ptr noundef %106, i32 noundef %107)
  %108 = load i32, ptr %16, align 4
  %109 = load i32, ptr %9, align 4
  %110 = add i32 %109, %108
  store i32 %110, ptr %9, align 4
  br label %111

111:                                              ; preds = %92
  %112 = load i32, ptr %13, align 4
  %113 = add i32 %112, 1
  store i32 %113, ptr %13, align 4
  br label %88, !llvm.loop !9

114:                                              ; preds = %88
  br label %118

115:                                              ; preds = %20
  %116 = load i32, ptr %9, align 4
  %117 = add i32 %116, 4
  store i32 %117, ptr %9, align 4
  br label %118

118:                                              ; preds = %115, %114
  %119 = load ptr, ptr %5, align 8
  %120 = load i32, ptr %9, align 4
  %121 = call i32 @tvb_get_ntohl(ptr noundef %119, i32 noundef %120)
  store i32 %121, ptr %14, align 4
  %122 = load ptr, ptr %7, align 8
  %123 = load i32, ptr @hf_swils_zone_full_zone_set_length, align 4
  %124 = load ptr, ptr %5, align 8
  %125 = load i32, ptr %9, align 4
  %126 = call ptr @proto_tree_add_item(ptr noundef %122, i32 noundef %123, ptr noundef %124, i32 noundef %125, i32 noundef 4, i32 noundef 0)
  %127 = load i32, ptr %14, align 4
  %128 = icmp ne i32 %127, 0
  br i1 %128, label %129, label %175

129:                                              ; preds = %118
  %130 = load i32, ptr %14, align 4
  store i32 %130, ptr %15, align 4
  %131 = load i32, ptr %9, align 4
  %132 = add i32 %131, 4
  store i32 %132, ptr %9, align 4
  %133 = load ptr, ptr %5, align 8
  %134 = load i32, ptr %9, align 4
  %135 = call i32 @tvb_get_ntohl(ptr noundef %133, i32 noundef %134)
  store i32 %135, ptr %12, align 4
  %136 = load ptr, ptr %7, align 8
  %137 = load ptr, ptr %5, align 8
  %138 = load i32, ptr %9, align 4
  %139 = load i32, ptr %15, align 4
  %140 = load i32, ptr @ett_fcswils_zoneobjlist, align 4
  %141 = call ptr @proto_tree_add_subtree(ptr noundef %136, ptr noundef %137, i32 noundef %138, i32 noundef %139, i32 noundef %140, ptr noundef null, ptr noundef @.str.420)
  store ptr %141, ptr %10, align 8
  %142 = load ptr, ptr %10, align 8
  %143 = load i32, ptr @hf_swils_zone_num_zoning_objects, align 4
  %144 = load ptr, ptr %5, align 8
  %145 = load i32, ptr %9, align 4
  %146 = call ptr @proto_tree_add_item(ptr noundef %142, i32 noundef %143, ptr noundef %144, i32 noundef %145, i32 noundef 4, i32 noundef 0)
  %147 = load i32, ptr %9, align 4
  %148 = add i32 %147, 4
  store i32 %148, ptr %9, align 4
  store i32 0, ptr %13, align 4
  br label %149

149:                                              ; preds = %171, %129
  %150 = load i32, ptr %13, align 4
  %151 = load i32, ptr %12, align 4
  %152 = icmp slt i32 %150, %151
  br i1 %152, label %153, label %174

153:                                              ; preds = %149
  %154 = load ptr, ptr %5, align 8
  %155 = load i32, ptr %9, align 4
  %156 = call i32 @get_zoneobj_len(ptr noundef %154, i32 noundef %155)
  store i32 %156, ptr %16, align 4
  %157 = load ptr, ptr %10, align 8
  %158 = load ptr, ptr %5, align 8
  %159 = load i32, ptr %9, align 4
  %160 = load i32, ptr %16, align 4
  %161 = load i32, ptr @ett_fcswils_zoneobj, align 4
  %162 = load i32, ptr %13, align 4
  %163 = call ptr (ptr, ptr, i32, i32, i32, ptr, ptr, ...) @proto_tree_add_subtree_format(ptr noundef %157, ptr noundef %158, i32 noundef %159, i32 noundef %160, i32 noundef %161, ptr noundef null, ptr noundef @.str.419, i32 noundef %162)
  store ptr %163, ptr %11, align 8
  %164 = load ptr, ptr %5, align 8
  %165 = load ptr, ptr %6, align 8
  %166 = load ptr, ptr %11, align 8
  %167 = load i32, ptr %9, align 4
  call void @dissect_swils_zone_obj(ptr noundef %164, ptr noundef %165, ptr noundef %166, i32 noundef %167)
  %168 = load i32, ptr %16, align 4
  %169 = load i32, ptr %9, align 4
  %170 = add i32 %169, %168
  store i32 %170, ptr %9, align 4
  br label %171

171:                                              ; preds = %153
  %172 = load i32, ptr %13, align 4
  %173 = add i32 %172, 1
  store i32 %173, ptr %13, align 4
  br label %149, !llvm.loop !10

174:                                              ; preds = %149
  br label %175

175:                                              ; preds = %174, %118
  br label %195

176:                                              ; preds = %4
  %177 = load ptr, ptr %7, align 8
  %178 = load i32, ptr @hf_swils_zone_status, align 4
  %179 = load ptr, ptr %5, align 8
  %180 = load i32, ptr %9, align 4
  %181 = add i32 %180, 5
  %182 = call ptr @proto_tree_add_item(ptr noundef %177, i32 noundef %178, ptr noundef %179, i32 noundef %181, i32 noundef 1, i32 noundef 0)
  %183 = load ptr, ptr %7, align 8
  %184 = load i32, ptr @hf_swils_zone_reason, align 4
  %185 = load ptr, ptr %5, align 8
  %186 = load i32, ptr %9, align 4
  %187 = add i32 %186, 6
  %188 = call ptr @proto_tree_add_item(ptr noundef %183, i32 noundef %184, ptr noundef %185, i32 noundef %187, i32 noundef 1, i32 noundef 0)
  %189 = load ptr, ptr %7, align 8
  %190 = load i32, ptr @hf_swils_zone_vendor_unique, align 4
  %191 = load ptr, ptr %5, align 8
  %192 = load i32, ptr %9, align 4
  %193 = add i32 %192, 7
  %194 = call ptr @proto_tree_add_item(ptr noundef %189, i32 noundef %190, ptr noundef %191, i32 noundef %193, i32 noundef 1, i32 noundef 0)
  br label %195

195:                                              ; preds = %176, %175
  ret void
}