; Function Attrs: nounwind uwtable
define internal void @dissect_swils_mergereq(ptr noundef %0, ptr noundef %1, ptr noundef %2, i8 noundef zeroext %3) #0 {
  %.not = icmp eq i8 %3, 0
  br i1 %.not, label %57, label %5

5:                                                ; preds = %4
  %6 = tail call zeroext i16 @tvb_get_ntohs(ptr noundef %0, i32 noundef 2) #7
  %7 = load i32, ptr @hf_swils_zone_active_zoneset_length, align 4
  %8 = tail call ptr @proto_tree_add_item(ptr noundef %2, i32 noundef %7, ptr noundef %0, i32 noundef 2, i32 noundef 2, i32 noundef 0) #7
  %.not95 = icmp eq i16 %6, 0
  br i1 %.not95, label %.loopexit98, label %9

9:                                                ; preds = %5
  %10 = zext i16 %6 to i32
  %11 = getelementptr inbounds nuw i8, ptr %1, i64 408
  %12 = load ptr, ptr %11, align 8
  %13 = tail call zeroext i8 @tvb_get_guint8(ptr noundef %0, i32 noundef 4) #7
  %14 = zext i8 %13 to i32
  %15 = tail call ptr @tvb_get_string_enc(ptr noundef %12, ptr noundef %0, i32 noundef 8, i32 noundef %14, i32 noundef 0) #7
  %16 = load i32, ptr @hf_swils_zone_activezonenm, align 4
  %17 = tail call zeroext i8 @tvb_get_guint8(ptr noundef %0, i32 noundef 4) #7
  %18 = zext i8 %17 to i32
  %19 = add nuw nsw i32 %18, 4
  %20 = tail call ptr @proto_tree_add_string(ptr noundef %2, i32 noundef %16, ptr noundef %0, i32 noundef 4, i32 noundef %19, ptr noundef %15) #7
  %21 = tail call zeroext i8 @tvb_get_guint8(ptr noundef %0, i32 noundef 4) #7
  %22 = zext i8 %21 to i32
  %.neg97 = add nsw i32 %10, -4
  %23 = sub nsw i32 %.neg97, %22
  %24 = tail call zeroext i8 @tvb_get_guint8(ptr noundef %0, i32 noundef 4) #7
  %25 = zext i8 %24 to i32
  %26 = add nuw nsw i32 %25, 8
  %27 = tail call i32 @tvb_get_ntohl(ptr noundef %0, i32 noundef %26) #7
  %28 = load i32, ptr @ett_fcswils_zoneobjlist, align 4
  %29 = tail call ptr @proto_tree_add_subtree(ptr noundef %2, ptr noundef %0, i32 noundef %26, i32 noundef %23, i32 noundef %28, ptr noundef null, ptr noundef nonnull @.str.418) #7
  %30 = load i32, ptr @hf_swils_zone_num_zoning_objects, align 4
  %31 = tail call ptr @proto_tree_add_item(ptr noundef %29, i32 noundef %30, ptr noundef %0, i32 noundef %26, i32 noundef 4, i32 noundef 0) #7
  %32 = add nuw nsw i32 %25, 12
  %33 = icmp sgt i32 %27, 0
  br i1 %33, label %.lr.ph, label %.loopexit98

.lr.ph:                                           ; preds = %9, %.lr.ph
  %.0100 = phi i32 [ %38, %.lr.ph ], [ %32, %9 ]
  %.09199 = phi i32 [ %39, %.lr.ph ], [ 0, %9 ]
  %34 = tail call fastcc i32 @get_zoneobj_len(ptr noundef %0, i32 noundef %.0100)
  %35 = add i32 %.0100, 4
  %36 = load i32, ptr @ett_fcswils_zoneobj, align 4
  %37 = tail call ptr (ptr, ptr, i32, i32, i32, ptr, ptr, ...) @proto_tree_add_subtree_format(ptr noundef %29, ptr noundef %0, i32 noundef %35, i32 noundef %34, i32 noundef %36, ptr noundef null, ptr noundef nonnull @.str.419, i32 noundef %.09199) #7
  tail call fastcc void @dissect_swils_zone_obj(ptr noundef %0, ptr noundef %1, ptr noundef %37, i32 noundef %.0100)
  %38 = add i32 %34, %.0100
  %39 = add nuw nsw i32 %.09199, 1
  %exitcond.not = icmp eq i32 %39, %27
  br i1 %exitcond.not, label %.loopexit98, label %.lr.ph, !llvm.loop !11

.loopexit98:                                      ; preds = %.lr.ph, %9, %5
  %.1 = phi i32 [ 4, %5 ], [ %32, %9 ], [ %38, %.lr.ph ]
  %40 = tail call i32 @tvb_get_ntohl(ptr noundef %0, i32 noundef %.1) #7
  %41 = load i32, ptr @hf_swils_zone_full_zone_set_length, align 4
  %42 = tail call ptr @proto_tree_add_item(ptr noundef %2, i32 noundef %41, ptr noundef %0, i32 noundef %.1, i32 noundef 4, i32 noundef 0) #7
  %.not96 = icmp eq i32 %40, 0
  br i1 %.not96, label %.loopexit, label %43

43:                                               ; preds = %.loopexit98
  %44 = add i32 %.1, 4
  %45 = tail call i32 @tvb_get_ntohl(ptr noundef %0, i32 noundef %44) #7
  %46 = load i32, ptr @ett_fcswils_zoneobjlist, align 4
  %47 = tail call ptr @proto_tree_add_subtree(ptr noundef %2, ptr noundef %0, i32 noundef %44, i32 noundef %40, i32 noundef %46, ptr noundef null, ptr noundef nonnull @.str.420) #7
  %48 = load i32, ptr @hf_swils_zone_num_zoning_objects, align 4
  %49 = tail call ptr @proto_tree_add_item(ptr noundef %47, i32 noundef %48, ptr noundef %0, i32 noundef %44, i32 noundef 4, i32 noundef 0) #7
  %50 = icmp sgt i32 %45, 0
  br i1 %50, label %.lr.ph103.preheader, label %.loopexit

.lr.ph103.preheader:                              ; preds = %43
  %51 = add i32 %.1, 8
  br label %.lr.ph103

.lr.ph103:                                        ; preds = %.lr.ph103.preheader, %.lr.ph103
  %.2102 = phi i32 [ %55, %.lr.ph103 ], [ %51, %.lr.ph103.preheader ]
  %.192101 = phi i32 [ %56, %.lr.ph103 ], [ 0, %.lr.ph103.preheader ]
  %52 = tail call fastcc i32 @get_zoneobj_len(ptr noundef %0, i32 noundef %.2102)
  %53 = load i32, ptr @ett_fcswils_zoneobj, align 4
  %54 = tail call ptr (ptr, ptr, i32, i32, i32, ptr, ptr, ...) @proto_tree_add_subtree_format(ptr noundef %47, ptr noundef %0, i32 noundef %.2102, i32 noundef %52, i32 noundef %53, ptr noundef null, ptr noundef nonnull @.str.419, i32 noundef %.192101) #7
  tail call fastcc void @dissect_swils_zone_obj(ptr noundef %0, ptr noundef %1, ptr noundef %54, i32 noundef %.2102)
  %55 = add i32 %52, %.2102
  %56 = add nuw nsw i32 %.192101, 1
  %exitcond104.not = icmp eq i32 %56, %45
  br i1 %exitcond104.not, label %.loopexit, label %.lr.ph103, !llvm.loop !12

57:                                               ; preds = %4
  %58 = load i32, ptr @hf_swils_zone_status, align 4
  %59 = tail call ptr @proto_tree_add_item(ptr noundef %2, i32 noundef %58, ptr noundef %0, i32 noundef 5, i32 noundef 1, i32 noundef 0) #7
  %60 = load i32, ptr @hf_swils_zone_reason, align 4
  %61 = tail call ptr @proto_tree_add_item(ptr noundef %2, i32 noundef %60, ptr noundef %0, i32 noundef 6, i32 noundef 1, i32 noundef 0) #7
  %62 = load i32, ptr @hf_swils_zone_vendor_unique, align 4
  %63 = tail call ptr @proto_tree_add_item(ptr noundef %2, i32 noundef %62, ptr noundef %0, i32 noundef 7, i32 noundef 1, i32 noundef 0) #7
  br label %.loopexit

.loopexit:                                        ; preds = %.lr.ph103, %43, %.loopexit98, %57
  ret void
}